target datalayout = "e-m:e-p270:32:32-p271:32:32-p272:64:64-i64:64-i128:128-f80:128-n8:16:32:64-S128"
target triple = "x86_64-pc-linux-gnu"

%struct.ForEachState = type { ptr, i32 }
%union.ListCell = type { ptr }
%struct.PLpgSQL_function = type { ptr, i32, i32, %struct.ItemPointerData, i32, i32, ptr, ptr, i32, i32, i8, i8, i8, i8, i8, i8, i32, [100 x i32], i32, i32, i32, i32, i32, i8, i32, i32, i32, ptr, i64, ptr, i32, i8, i8, ptr, i64 }
%struct.ItemPointerData = type { %struct.BlockIdData, i16 }
%struct.BlockIdData = type { i16, i16 }
%struct.PLpgSQL_var = type { i32, i32, ptr, i32, i8, i8, ptr, ptr, ptr, i32, i32, i64, i8, i8, i32 }
%struct.List = type { i32, i32, i32, ptr, [0 x %union.ListCell] }
%struct.PLpgSQL_expr = type { ptr, i32, ptr, ptr, i32, i8, ptr, ptr, ptr, i32, i32, i8, i32, ptr, ptr, ptr, i32, ptr, i8, i32 }
%struct.PLpgSQL_case_when = type { i32, ptr, ptr }
%struct.StringInfoData = type { ptr, i32, i32, i32 }
%struct.PLpgSQL_stmt_case = type { i32, i32, i32, ptr, i32, ptr, i8, ptr }

@plpgsql_curr_compile = external global ptr, align 8
@.str.144 = private unnamed_addr constant [22 x i8] c"__Case__Variable_%d__\00", align 1
@plpgsql_nDatums = external global i32, align 4
@.str.145 = private unnamed_addr constant [13 x i8] c"\22%s\22 IN (%s)\00", align 1

; Function Attrs: inlinehint nounwind uwtable
define internal ptr @list_nth_cell(ptr noundef %0, i32 noundef %1) #6 {
  %3 = alloca ptr, align 8
  %4 = alloca i32, align 4
  store ptr %0, ptr %3, align 8
  store i32 %1, ptr %4, align 4
  %5 = load ptr, ptr %3, align 8
  %6 = getelementptr inbounds nuw %struct.List, ptr %5, i32 0, i32 3
  %7 = load ptr, ptr %6, align 8
  %8 = load i32, ptr %4, align 4
  %9 = sext i32 %8 to i64
  %10 = getelementptr inbounds %union.ListCell, ptr %7, i64 %9
  ret ptr %10
}

; Function Attrs: inlinehint nounwind uwtable
define internal i32 @list_length(ptr noundef %0) #6 {
  %2 = alloca ptr, align 8
  store ptr %0, ptr %2, align 8
  %3 = load ptr, ptr %2, align 8
  %4 = icmp ne ptr %3, null
  br i1 %4, label %5, label %9

5:                                                ; preds = %1
  %6 = load ptr, ptr %2, align 8
  %7 = getelementptr inbounds nuw %struct.List, ptr %6, i32 0, i32 1
  %8 = load i32, ptr %7, align 4
  br label %10

9:                                                ; preds = %1
  br label %10

10:                                               ; preds = %9, %5
  %11 = phi i32 [ %8, %5 ], [ 0, %9 ]
  ret i32 %11
}

; Function Attrs: nounwind uwtable
define internal ptr @make_case(i32 noundef %0, ptr noundef %1, ptr noundef %2, ptr noundef %3, ptr noundef %4) #0 {
  %6 = alloca i32, align 4
  %7 = alloca ptr, align 8
  %8 = alloca ptr, align 8
  %9 = alloca ptr, align 8
  %10 = alloca ptr, align 8
  %11 = alloca ptr, align 8
  %12 = alloca [32 x i8], align 16
  %13 = alloca ptr, align 8
  %14 = alloca ptr, align 8
  %15 = alloca %struct.ForEachState, align 8
  %16 = alloca ptr, align 8
  %17 = alloca ptr, align 8
  %18 = alloca %struct.StringInfoData, align 8
  store i32 %0, ptr %6, align 4
  store ptr %1, ptr %7, align 8
  store ptr %2, ptr %8, align 8
  store ptr %3, ptr %9, align 8
  store ptr %4, ptr %10, align 8
  call void @llvm.lifetime.start.p0(i64 8, ptr %11) #10
  %19 = call ptr @palloc(i64 noundef 56)
  store ptr %19, ptr %11, align 8
  %20 = load ptr, ptr %11, align 8
  %21 = getelementptr inbounds nuw %struct.PLpgSQL_stmt_case, ptr %20, i32 0, i32 0
  store i32 3, ptr %21, align 8
  %22 = load i32, ptr %6, align 4
  %23 = load ptr, ptr %10, align 8
  %24 = call i32 @plpgsql_location_to_lineno(i32 noundef %22, ptr noundef %23)
  %25 = load ptr, ptr %11, align 8
  %26 = getelementptr inbounds nuw %struct.PLpgSQL_stmt_case, ptr %25, i32 0, i32 1
  store i32 %24, ptr %26, align 4
  %27 = load ptr, ptr @plpgsql_curr_compile, align 8
  %28 = getelementptr inbounds nuw %struct.PLpgSQL_function, ptr %27, i32 0, i32 30
  %29 = load i32, ptr %28, align 8
  %30 = add i32 %29, 1
  store i32 %30, ptr %28, align 8
  %31 = load ptr, ptr %11, align 8
  %32 = getelementptr inbounds nuw %struct.PLpgSQL_stmt_case, ptr %31, i32 0, i32 2
  store i32 %30, ptr %32, align 8
  %33 = load ptr, ptr %7, align 8
  %34 = load ptr, ptr %11, align 8
  %35 = getelementptr inbounds nuw %struct.PLpgSQL_stmt_case, ptr %34, i32 0, i32 3
  store ptr %33, ptr %35, align 8
  %36 = load ptr, ptr %11, align 8
  %37 = getelementptr inbounds nuw %struct.PLpgSQL_stmt_case, ptr %36, i32 0, i32 4
  store i32 0, ptr %37, align 8
  %38 = load ptr, ptr %8, align 8
  %39 = load ptr, ptr %11, align 8
  %40 = getelementptr inbounds nuw %struct.PLpgSQL_stmt_case, ptr %39, i32 0, i32 5
  store ptr %38, ptr %40, align 8
  %41 = load ptr, ptr %9, align 8
  %42 = icmp ne ptr %41, null
  %43 = load ptr, ptr %11, align 8
  %44 = getelementptr inbounds nuw %struct.PLpgSQL_stmt_case, ptr %43, i32 0, i32 6
  %45 = zext i1 %42 to i8
  store i8 %45, ptr %44, align 8
  %46 = load ptr, ptr %9, align 8
  %47 = call i32 @list_length(ptr noundef %46)
  %48 = icmp eq i32 %47, 1
  br i1 %48, label %49, label %57

49:                                               ; preds = %5
  %50 = load ptr, ptr %9, align 8
  %51 = call ptr @list_nth_cell(ptr noundef %50, i32 noundef 0)
  %52 = load ptr, ptr %51, align 8
  %53 = icmp eq ptr %52, null
  br i1 %53, label %54, label %57

54:                                               ; preds = %49
  %55 = load ptr, ptr %11, align 8
  %56 = getelementptr inbounds nuw %struct.PLpgSQL_stmt_case, ptr %55, i32 0, i32 7
  store ptr null, ptr %56, align 8
  br label %61

57:                                               ; preds = %49, %5
  %58 = load ptr, ptr %9, align 8
  %59 = load ptr, ptr %11, align 8
  %60 = getelementptr inbounds nuw %struct.PLpgSQL_stmt_case, ptr %59, i32 0, i32 7
  store ptr %58, ptr %60, align 8
  br label %61

61:                                               ; preds = %57, %54
  %62 = load ptr, ptr %7, align 8
  %63 = icmp ne ptr %62, null
  br i1 %63, label %64, label %137

64:                                               ; preds = %61
  call void @llvm.lifetime.start.p0(i64 32, ptr %12) #10
  call void @llvm.lifetime.start.p0(i64 8, ptr %13) #10
  call void @llvm.lifetime.start.p0(i64 8, ptr %14) #10
  %65 = getelementptr inbounds [32 x i8], ptr %12, i64 0, i64 0
  %66 = load i32, ptr @plpgsql_nDatums, align 4
  %67 = call i32 (ptr, i64, ptr, ...) @pg_snprintf(ptr noundef %65, i64 noundef 32, ptr noundef @.str.144, i32 noundef %66)
  %68 = getelementptr inbounds [32 x i8], ptr %12, i64 0, i64 0
  %69 = load ptr, ptr %11, align 8
  %70 = getelementptr inbounds nuw %struct.PLpgSQL_stmt_case, ptr %69, i32 0, i32 1
  %71 = load i32, ptr %70, align 4
  %72 = call ptr @plpgsql_build_datatype(i32 noundef 23, i32 noundef -1, i32 noundef 0, ptr noundef null)
  %73 = call ptr @plpgsql_build_variable(ptr noundef %68, i32 noundef %71, ptr noundef %72, i1 noundef zeroext true)
  store ptr %73, ptr %13, align 8
  %74 = load ptr, ptr %13, align 8
  %75 = getelementptr inbounds nuw %struct.PLpgSQL_var, ptr %74, i32 0, i32 1
  %76 = load i32, ptr %75, align 4
  %77 = load ptr, ptr %11, align 8
  %78 = getelementptr inbounds nuw %struct.PLpgSQL_stmt_case, ptr %77, i32 0, i32 4
  store i32 %76, ptr %78, align 8
  call void @llvm.lifetime.start.p0(i64 16, ptr %15) #10
  %79 = getelementptr inbounds nuw %struct.ForEachState, ptr %15, i32 0, i32 0
  %80 = load ptr, ptr %8, align 8
  store ptr %80, ptr %79, align 8
  %81 = getelementptr inbounds nuw %struct.ForEachState, ptr %15, i32 0, i32 1
  store i32 0, ptr %81, align 8
  %82 = getelementptr i8, ptr %15, i64 12
  call void @llvm.memset.p0.i64(ptr align 4 %82, i8 0, i64 4, i1 false)
  br label %83

83:                                               ; preds = %132, %64
  %84 = getelementptr inbounds nuw %struct.ForEachState, ptr %15, i32 0, i32 0
  %85 = load ptr, ptr %84, align 8
  %86 = icmp ne ptr %85, null
  br i1 %86, label %87, label %104

87:                                               ; preds = %83
  %88 = getelementptr inbounds nuw %struct.ForEachState, ptr %15, i32 0, i32 1
  %89 = load i32, ptr %88, align 8
  %90 = getelementptr inbounds nuw %struct.ForEachState, ptr %15, i32 0, i32 0
  %91 = load ptr, ptr %90, align 8
  %92 = getelementptr inbounds nuw %struct.List, ptr %91, i32 0, i32 1
  %93 = load i32, ptr %92, align 4
  %94 = icmp slt i32 %89, %93
  br i1 %94, label %95, label %104

95:                                               ; preds = %87
  %96 = getelementptr inbounds nuw %struct.ForEachState, ptr %15, i32 0, i32 0
  %97 = load ptr, ptr %96, align 8
  %98 = getelementptr inbounds nuw %struct.List, ptr %97, i32 0, i32 3
  %99 = load ptr, ptr %98, align 8
  %100 = getelementptr inbounds nuw %struct.ForEachState, ptr %15, i32 0, i32 1
  %101 = load i32, ptr %100, align 8
  %102 = sext i32 %101 to i64
  %103 = getelementptr inbounds %union.ListCell, ptr %99, i64 %102
  store ptr %103, ptr %14, align 8
  br label %105

104:                                              ; preds = %87, %83
  store ptr null, ptr %14, align 8
  br label %105

105:                                              ; preds = %104, %95
  %106 = phi i32 [ 1, %95 ], [ 0, %104 ]
  %107 = icmp ne i32 %106, 0
  br i1 %107, label %109, label %108

108:                                              ; preds = %105
  call void @llvm.lifetime.end.p0(i64 16, ptr %15) #10
  br label %136

109:                                              ; preds = %105
  call void @llvm.lifetime.start.p0(i64 8, ptr %16) #10
  %110 = load ptr, ptr %14, align 8
  %111 = load ptr, ptr %110, align 8
  store ptr %111, ptr %16, align 8
  call void @llvm.lifetime.start.p0(i64 8, ptr %17) #10
  %112 = load ptr, ptr %16, align 8
  %113 = getelementptr inbounds nuw %struct.PLpgSQL_case_when, ptr %112, i32 0, i32 1
  %114 = load ptr, ptr %113, align 8
  store ptr %114, ptr %17, align 8
  call void @llvm.lifetime.start.p0(i64 24, ptr %18) #10
  call void @initStringInfo(ptr noundef %18)
  %115 = getelementptr inbounds [32 x i8], ptr %12, i64 0, i64 0
  %116 = load ptr, ptr %17, align 8
  %117 = getelementptr inbounds nuw %struct.PLpgSQL_expr, ptr %116, i32 0, i32 0
  %118 = load ptr, ptr %117, align 8
  call void (ptr, ptr, ...) @appendStringInfo(ptr noundef %18, ptr noundef @.str.145, ptr noundef %115, ptr noundef %118)
  %119 = load ptr, ptr %17, align 8
  %120 = getelementptr inbounds nuw %struct.PLpgSQL_expr, ptr %119, i32 0, i32 0
  %121 = load ptr, ptr %120, align 8
  call void @pfree(ptr noundef %121)
  %122 = getelementptr inbounds nuw %struct.StringInfoData, ptr %18, i32 0, i32 0
  %123 = load ptr, ptr %122, align 8
  %124 = call ptr @pstrdup(ptr noundef %123)
  %125 = load ptr, ptr %17, align 8
  %126 = getelementptr inbounds nuw %struct.PLpgSQL_expr, ptr %125, i32 0, i32 0
  store ptr %124, ptr %126, align 8
  %127 = call ptr @plpgsql_ns_top()
  %128 = load ptr, ptr %17, align 8
  %129 = getelementptr inbounds nuw %struct.PLpgSQL_expr, ptr %128, i32 0, i32 3
  store ptr %127, ptr %129, align 8
  %130 = getelementptr inbounds nuw %struct.StringInfoData, ptr %18, i32 0, i32 0
  %131 = load ptr, ptr %130, align 8
  call void @pfree(ptr noundef %131)
  call void @llvm.lifetime.end.p0(i64 24, ptr %18) #10
  call void @llvm.lifetime.end.p0(i64 8, ptr %17) #10
  call void @llvm.lifetime.end.p0(i64 8, ptr %16) #10
  br label %132

132:                                              ; preds = %109
  %133 = getelementptr inbounds nuw %struct.ForEachState, ptr %15, i32 0, i32 1
  %134 = load i32, ptr %133, align 8
  %135 = add i32 %134, 1
  store i32 %135, ptr %133, align 8
  br label %83, !llvm.loop !16

136:                                              ; preds = %108
  call void @llvm.lifetime.end.p0(i64 8, ptr %14) #10
  call void @llvm.lifetime.end.p0(i64 8, ptr %13) #10
  call void @llvm.lifetime.end.p0(i64 32, ptr %12) #10
  br label %137

137:                                              ; preds = %136, %61
  %138 = load ptr, ptr %11, align 8
  call void @llvm.lifetime.end.p0(i64 8, ptr %11) #10
  ret ptr %138
}