; Function Attrs: nounwind uwtable
define internal fastcc noundef ptr @make_case(i32 noundef %0, ptr noundef %1, ptr noundef %2, ptr noundef %3, ptr noundef %4) unnamed_addr #0 {
  %6 = alloca [32 x i8], align 16
  %7 = alloca %struct.StringInfoData, align 8
  %8 = tail call ptr @palloc(i64 noundef 56) #12
  store i32 3, ptr %8, align 8
  %9 = tail call i32 @plpgsql_location_to_lineno(i32 noundef %0, ptr noundef %4) #12
  %10 = getelementptr inbounds nuw i8, ptr %8, i64 4
  store i32 %9, ptr %10, align 4
  %11 = load ptr, ptr @plpgsql_curr_compile, align 8
  %12 = getelementptr inbounds nuw i8, ptr %11, i64 528
  %13 = load i32, ptr %12, align 8
  %14 = add i32 %13, 1
  store i32 %14, ptr %12, align 8
  %15 = getelementptr inbounds nuw i8, ptr %8, i64 8
  store i32 %14, ptr %15, align 8
  %16 = getelementptr inbounds nuw i8, ptr %8, i64 16
  store ptr %1, ptr %16, align 8
  %17 = getelementptr inbounds nuw i8, ptr %8, i64 24
  store i32 0, ptr %17, align 8
  %18 = getelementptr inbounds nuw i8, ptr %8, i64 32
  store ptr %2, ptr %18, align 8
  %19 = icmp ne ptr %3, null
  %20 = getelementptr inbounds nuw i8, ptr %8, i64 40
  %21 = zext i1 %19 to i8
  store i8 %21, ptr %20, align 8
  %.not.i = icmp eq ptr %3, null
  br i1 %.not.i, label %list_length.exit.thread, label %list_length.exit

list_length.exit:                                 ; preds = %5
  %22 = getelementptr inbounds nuw i8, ptr %3, i64 4
  %23 = load i32, ptr %22, align 4
  %24 = icmp eq i32 %23, 1
  br i1 %24, label %25, label %list_length.exit.thread

25:                                               ; preds = %list_length.exit
  %26 = getelementptr i8, ptr %3, i64 16
  %.val = load ptr, ptr %26, align 8
  %27 = load ptr, ptr %.val, align 8
  %28 = icmp eq ptr %27, null
  br i1 %28, label %29, label %list_length.exit.thread

list_length.exit.thread:                          ; preds = %5, %25, %list_length.exit
  br label %29

29:                                               ; preds = %25, %list_length.exit.thread
  %.sink = phi ptr [ %3, %list_length.exit.thread ], [ null, %25 ]
  %30 = getelementptr inbounds nuw i8, ptr %8, i64 48
  store ptr %.sink, ptr %30, align 8
  %.not = icmp eq ptr %1, null
  br i1 %.not, label %58, label %31

31:                                               ; preds = %29
  call void @llvm.lifetime.start.p0(i64 32, ptr nonnull %6) #12
  %32 = load i32, ptr @plpgsql_nDatums, align 4
  %33 = call i32 (ptr, i64, ptr, ...) @pg_snprintf(ptr noundef nonnull %6, i64 noundef 32, ptr noundef nonnull @.str.144, i32 noundef %32) #12
  %34 = load i32, ptr %10, align 4
  %35 = call ptr @plpgsql_build_datatype(i32 noundef 23, i32 noundef -1, i32 noundef 0, ptr noundef null) #12
  %36 = call ptr @plpgsql_build_variable(ptr noundef nonnull %6, i32 noundef %34, ptr noundef %35, i1 noundef zeroext true) #12
  %37 = getelementptr inbounds nuw i8, ptr %36, i64 4
  %38 = load i32, ptr %37, align 4
  store i32 %38, ptr %17, align 8
  %39 = getelementptr inbounds nuw i8, ptr %2, i64 4
  %.not33 = icmp eq ptr %2, null
  br i1 %.not33, label %._crit_edge, label %.lr.ph

.lr.ph:                                           ; preds = %31
  %40 = getelementptr inbounds nuw i8, ptr %2, i64 16
  %41 = load i32, ptr %39, align 4
  %42 = icmp sgt i32 %41, 0
  br i1 %42, label %.lr.ph40, label %._crit_edge

._crit_edge:                                      ; preds = %.lr.ph40, %.lr.ph, %31
  call void @llvm.lifetime.end.p0(i64 32, ptr nonnull %6) #12
  br label %58

.lr.ph40:                                         ; preds = %.lr.ph, %.lr.ph40
  %indvars.iv = phi i64 [ %indvars.iv.next, %.lr.ph40 ], [ 0, %.lr.ph ]
  %43 = load ptr, ptr %40, align 8
  %44 = getelementptr inbounds nuw %union.ListCell, ptr %43, i64 %indvars.iv
  %45 = load ptr, ptr %44, align 8
  %46 = getelementptr inbounds nuw i8, ptr %45, i64 8
  %47 = load ptr, ptr %46, align 8
  call void @llvm.lifetime.start.p0(i64 24, ptr nonnull %7) #12
  call void @initStringInfo(ptr noundef nonnull %7) #12
  %48 = load ptr, ptr %47, align 8
  call void (ptr, ptr, ...) @appendStringInfo(ptr noundef nonnull %7, ptr noundef nonnull @.str.145, ptr noundef nonnull %6, ptr noundef %48) #12
  %49 = load ptr, ptr %47, align 8
  call void @pfree(ptr noundef %49) #12
  %50 = load ptr, ptr %7, align 8
  %51 = call ptr @pstrdup(ptr noundef %50) #12
  store ptr %51, ptr %47, align 8
  %52 = call ptr @plpgsql_ns_top() #12
  %53 = getelementptr inbounds nuw i8, ptr %47, i64 24
  store ptr %52, ptr %53, align 8
  %54 = load ptr, ptr %7, align 8
  call void @pfree(ptr noundef %54) #12
  call void @llvm.lifetime.end.p0(i64 24, ptr nonnull %7) #12
  %indvars.iv.next = add nuw nsw i64 %indvars.iv, 1
  %55 = load i32, ptr %39, align 4
  %56 = sext i32 %55 to i64
  %57 = icmp slt i64 %indvars.iv.next, %56
  br i1 %57, label %.lr.ph40, label %._crit_edge

58:                                               ; preds = %._crit_edge, %29
  ret ptr %8
}